(dp0
S'METTS MARK'
p1
(dp2
S'to_messages'
p3
I807
sS'deferral_payments'
p4
S'NaN'
p5
sS'expenses'
p6
I94299
sS'poi'
p7
I00
sS'deferred_income'
p8
g5
sS'email_address'
p9
S'mark.metts@enron.com'
p10
sS'long_term_incentive'
p11
g5
sS'restricted_stock_deferred'
p12
g5
sS'shared_receipt_with_poi'
p13
I702
sS'loan_advances'
p14
g5
sS'from_messages'
p15
I29
sS'other'
p16
I1740
sS'director_fees'
p17
g5
sS'bonus'
p18
I600000
sS'total_stock_value'
p19
I585062
sS'from_poi_to_this_person'
p20
I38
sS'PCA_feature'
p21
cnumpy.core.multiarray
scalar
p22
(cnumpy
dtype
p23
(S'f8'
p24
I0
I1
tp25
Rp26
(I3
S'<'
p27
NNNI-1
I-1
I0
tp28
bS'_\x84@\xb6\xdbl\x02@'
p29
tp30
Rp31
sS'from_this_person_to_poi'
p32
I1
sS'restricted_stock'
p33
I585062
sS'salary'
p34
I365788
sS'total_payments'
p35
I1061827
sS'exercised_stock_options'
p36
g5
ssS'BAXTER JOHN C'
p37
(dp38
g3
g5
sg4
I1295738
sg6
I11200
sg7
I00
sg8
I-1386055
sg9
g5
sg11
I1586055
sg12
g5
sg13
g5
sg14
g5
sg15
g5
sg16
I2660303
sg17
g5
sg18
I1200000
sg19
I10623258
sg20
g5
sg21
g22
(g26
S'B\x0e\xb7b\x08\xa6\xfa\xbf'
p39
tp40
Rp41
sg32
g5
sg33
I3942714
sg34
I267102
sg35
I5634343
sg36
I6680544
ssS'ELLIOTT STEVEN'
p42
(dp43
g3
g5
sg4
g5
sg6
I78552
sg7
I00
sg8
I-400729
sg9
S'steven.elliott@enron.com'
p44
sg11
g5
sg12
g5
sg13
g5
sg14
g5
sg15
g5
sg16
I12961
sg17
g5
sg18
I350000
sg19
I6678735
sg20
g5
sg21
g22
(g26
S'\xf1]\xfa\xfeA)\xd3\xbf'
p45
tp46
Rp47
sg32
g5
sg33
I1788391
sg34
I170941
sg35
I211725
sg36
I4890344
ssS'CORDES WILLIAM R'
p48
(dp49
g3
I764
sg4
g5
sg6
g5
sg7
I00
sg8
g5
sg9
S'bill.cordes@enron.com'
p50
sg11
g5
sg12
g5
sg13
I58
sg14
g5
sg15
I12
sg16
g5
sg17
g5
sg18
g5
sg19
I1038185
sg20
I10
sg21
g22
(g26
S'\x8d\x18{?\xdc0\x04@'
p51
tp52
Rp53
sg32
I0
sg33
I386335
sg34
g5
sg35
g5
sg36
I651850
ssS'HANNON KEVIN P'
p54
(dp55
g3
I1045
sg4
g5
sg6
I34039
sg7
I01
sg8
I-3117011
sg9
S'kevin.hannon@enron.com'
p56
sg11
I1617011
sg12
g5
sg13
I1035
sg14
g5
sg15
I32
sg16
I11350
sg17
g5
sg18
I1500000
sg19
I6391065
sg20
I32
sg21
g22
(g26
S'80n\xc0\xb7\x17\xe8\xbf'
p57
tp58
Rp59
sg32
I21
sg33
I853064
sg34
I243293
sg35
I288682
sg36
I5538001
ssS'MORDAUNT KRISTINA M'
p60
(dp61
g3
g5
sg4
g5
sg6
I35018
sg7
I00
sg8
g5
sg9
S'kristina.mordaunt@enron.com'
p62
sg11
g5
sg12
g5
sg13
g5
sg14
g5
sg15
g5
sg16
I1411
sg17
g5
sg18
I325000
sg19
I208510
sg20
g5
sg21
g22
(g26
S"0\x8e'\x0co<\xf4\xbf"
p63
tp64
Rp65
sg32
g5
sg33
I208510
sg34
I267093
sg35
I628522
sg36
g5
ssS'MEYER ROCKFORD G'
p66
(dp67
g3
I232
sg4
I1848227
sg6
g5
sg7
I00
sg8
g5
sg9
S'rockford.meyer@enron.com'
p68
sg11
g5
sg12
g5
sg13
I22
sg14
g5
sg15
I28
sg16
g5
sg17
g5
sg18
g5
sg19
I955873
sg20
I0
sg21
g22
(g26
S'\xb5\xae\x10\x00p.\xf8?'
p69
tp70
Rp71
sg32
I0
sg33
I462384
sg34
g5
sg35
I1848227
sg36
I493489
ssS'MCMAHON JEFFREY'
p72
(dp73
g3
I2355
sg4
g5
sg6
I137108
sg7
I00
sg8
g5
sg9
S'jeffrey.mcmahon@enron.com'
p74
sg11
I694862
sg12
g5
sg13
I2228
sg14
g5
sg15
I48
sg16
I297353
sg17
g5
sg18
I2600000
sg19
I1662855
sg20
I58
sg21
g22
(g26
S'\xac\xaa\x0f\x86\x8bZ\x10@'
p75
tp76
Rp77
sg32
I26
sg33
I558801
sg34
I370448
sg35
I4099771
sg36
I1104054
ssS'HORTON STANLEY C'
p78
(dp79
g3
I2350
sg4
I3131860
sg6
g5
sg7
I00
sg8
g5
sg9
S'stanley.horton@enron.com'
p80
sg11
g5
sg12
g5
sg13
I1074
sg14
g5
sg15
I1073
sg16
g5
sg17
g5
sg18
g5
sg19
I7256648
sg20
I44
sg21
g22
(g26
S'r\xfe\xbd\x10.3\xfc\xbf'
p81
tp82
Rp83
sg32
I15
sg33
I2046079
sg34
g5
sg35
I3131860
sg36
I5210569
ssS'PIPER GREGORY F'
p84
(dp85
g3
I1238
sg4
I1130036
sg6
I43057
sg7
I00
sg8
I-33333
sg9
S'greg.piper@enron.com'
p86
sg11
g5
sg12
I-409554
sg13
I742
sg14
g5
sg15
I222
sg16
I778
sg17
g5
sg18
I400000
sg19
I880290
sg20
I61
sg21
g22
(g26
S'\x0f\xa9\x1a\xb9\xd82\xf0\xbf'
p87
tp88
Rp89
sg32
I48
sg33
I409554
sg34
I197091
sg35
I1737629
sg36
I880290
ssS'HUMPHREY GENE E'
p90
(dp91
g3
I128
sg4
I2964506
sg6
I4994
sg7
I00
sg8
g5
sg9
S'gene.humphrey@enron.com'
p92
sg11
g5
sg12
g5
sg13
I119
sg14
g5
sg15
I17
sg16
g5
sg17
g5
sg18
g5
sg19
I2282768
sg20
I10
sg21
g22
(g26
S'xv\x12$\x97B\xe5\xbf'
p93
tp94
Rp95
sg32
I17
sg33
g5
sg34
I130724
sg35
I3100224
sg36
I2282768
ssS'UMANOFF ADAM S'
p96
(dp97
g3
I111
sg4
g5
sg6
I53122
sg7
I00
sg8
g5
sg9
S'adam.umanoff@enron.com'
p98
sg11
g5
sg12
g5
sg13
I41
sg14
g5
sg15
I18
sg16
g5
sg17
g5
sg18
I788750
sg19
g5
sg20
I12
sg21
g22
(g26
S'\xe4X\x1c\xe8\xb3\\\xff\xbf'
p99
tp100
Rp101
sg32
I0
sg33
g5
sg34
I288589
sg35
I1130461
sg36
g5
ssS'BLACHMAN JEREMY M'
p102
(dp103
g3
I2475
sg4
g5
sg6
I84208
sg7
I00
sg8
g5
sg9
S'jeremy.blachman@enron.com'
p104
sg11
I831809
sg12
g5
sg13
I2326
sg14
g5
sg15
I14
sg16
I272
sg17
g5
sg18
I850000
sg19
I954354
sg20
I25
sg21
g22
(g26
S';\xe5\xf0\x15\xa5_\xa6?'
p105
tp106
Rp107
sg32
I2
sg33
I189041
sg34
I248546
sg35
I2014835
sg36
I765313
ssS'SUNDE MARTIN'
p108
(dp109
g3
I2647
sg4
g5
sg6
g5
sg7
I00
sg8
g5
sg9
S'marty.sunde@enron.com'
p110
sg11
I476451
sg12
g5
sg13
I2565
sg14
g5
sg15
I38
sg16
I111122
sg17
g5
sg18
I700000
sg19
I698920
sg20
I37
sg21
g22
(g26
S'\x92sK\x0c\\Z\xdb?'
p111
tp112
Rp113
sg32
I13
sg33
I698920
sg34
I257486
sg35
I1545059
sg36
g5
ssS'GIBBS DANA R'
p114
(dp115
g3
I169
sg4
I504610
sg6
g5
sg7
I00
sg8
g5
sg9
S'dana.gibbs@enron.com'
p116
sg11
I461912
sg12
g5
sg13
I23
sg14
g5
sg15
I12
sg16
g5
sg17
g5
sg18
g5
sg19
I2218275
sg20
I0
sg21
g22
(g26
S'\xcb\xef\x91\xeb\xf5\x88\x00\xc0'
p117
tp118
Rp119
sg32
I0
sg33
g5
sg34
g5
sg35
I966522
sg36
I2218275
ssS'LOWRY CHARLES P'
p120
(dp121
g3
g5
sg4
g5
sg6
g5
sg7
I00
sg8
g5
sg9
g5
sg11
g5
sg12
I-153686
sg13
g5
sg14
g5
sg15
g5
sg16
g5
sg17
g5
sg18
g5
sg19
I372205
sg20
g5
sg21
g22
(g26
S'^\xa4\x94N\xb4\x00\xe6?'
p122
tp123
Rp124
sg32
g5
sg33
I153686
sg34
g5
sg35
g5
sg36
I372205
ssS'COLWELL WESLEY'
p125
(dp126
g3
I1758
sg4
I27610
sg6
I16514
sg7
I01
sg8
I-144062
sg9
S'wes.colwell@enron.com'
p127
sg11
g5
sg12
g5
sg13
I1132
sg14
g5
sg15
I40
sg16
I101740
sg17
g5
sg18
I1200000
sg19
I698242
sg20
I240
sg21
g22
(g26
S'\xa3\x162\xf62\r\xf4\xbf'
p128
tp129
Rp130
sg32
I11
sg33
I698242
sg34
I288542
sg35
I1490344
sg36
g5
ssS'MULLER MARK S'
p131
(dp132
g3
I136
sg4
I842924
sg6
g5
sg7
I00
sg8
I-719000
sg9
S's..muller@enron.com'
p133
sg11
I1725545
sg12
g5
sg13
I114
sg14
g5
sg15
I16
sg16
I947
sg17
g5
sg18
I1100000
sg19
I1416848
sg20
I12
sg21
g22
(g26
S'\xba\x99\x9b\x87E_\xea\xbf'
p134
tp135
Rp136
sg32
I0
sg33
I360528
sg34
I251654
sg35
I3202070
sg36
I1056320
ssS'JACKSON CHARLENE R'
p137
(dp138
g3
I258
sg4
g5
sg6
I10181
sg7
I00
sg8
g5
sg9
S'charlene.jackson@enron.com'
p139
sg11
g5
sg12
g5
sg13
I117
sg14
g5
sg15
I56
sg16
I2435
sg17
g5
sg18
I250000
sg19
I725735
sg20
I25
sg21
g22
(g26
S'\x05\xbc\xe7jWW\xeb\xbf'
p140
tp141
Rp142
sg32
I19
sg33
I540672
sg34
I288558
sg35
I551174
sg36
I185063
ssS'WESTFAHL RICHARD K'
p143
(dp144
g3
g5
sg4
g5
sg6
I51870
sg7
I00
sg8
I-10800
sg9
S'dick.westfahl@enron.com'
p145
sg11
I256191
sg12
g5
sg13
g5
sg14
g5
sg15
g5
sg16
I401130
sg17
g5
sg18
g5
sg19
I384930
sg20
g5
sg21
g22
(g26
S'\xaf\xeb\xb2\xd1\xa8\xab\xfa?'
p146
tp147
Rp148
sg32
g5
sg33
I384930
sg34
I63744
sg35
I762135
sg36
g5
ssS'WALTERS GARETH W'
p149
(dp150
g3
g5
sg4
I53625
sg6
I33785
sg7
I00
sg8
g5
sg9
g5
sg11
g5
sg12
g5
sg13
g5
sg14
g5
sg15
g5
sg16
g5
sg17
g5
sg18
g5
sg19
I1030329
sg20
g5
sg21
g22
(g26
S'kl,s\xc1\xf9\xe5?'
p151
tp152
Rp153
sg32
g5
sg33
g5
sg34
g5
sg35
I87410
sg36
I1030329
ssS'WALLS JR ROBERT H'
p154
(dp155
g3
I671
sg4
g5
sg6
I50936
sg7
I00
sg8
g5
sg9
S'rob.walls@enron.com'
p156
sg11
I540751
sg12
g5
sg13
I215
sg14
g5
sg15
I146
sg16
I2
sg17
g5
sg18
I850000
sg19
I5898997
sg20
I17
sg21
g22
(g26
S'L.x\x0b\x193\xee\xbf'
p157
tp158
Rp159
sg32
I0
sg33
I1552453
sg34
I357091
sg35
I1798780
sg36
I4346544
ssS'KITCHEN LOUISE'
p160
(dp161
g3
I8305
sg4
g5
sg6
I5774
sg7
I00
sg8
g5
sg9
S'louise.kitchen@enron.com'
p162
sg11
g5
sg12
g5
sg13
I3669
sg14
g5
sg15
I1728
sg16
I93925
sg17
g5
sg18
I3100000
sg19
I547143
sg20
I251
sg21
g22
(g26
S'\x16\xf7\xab\x94m(\xe9?'
p163
tp164
Rp165
sg32
I194
sg33
I466101
sg34
I271442
sg35
I3471141
sg36
I81042
ssS'CHAN RONNIE'
p166
(dp167
g3
g5
sg4
g5
sg6
g5
sg7
I00
sg8
I-98784
sg9
g5
sg11
g5
sg12
I-32460
sg13
g5
sg14
g5
sg15
g5
sg16
g5
sg17
I98784
sg18
g5
sg19
g5
sg20
g5
sg21
g22
(g26
S'\xbb\x01\xcaF\x99+\x00\xc0'
p168
tp169
Rp170
sg32
g5
sg33
I32460
sg34
g5
sg35
g5
sg36
g5
ssS'BELFER ROBERT'
p171
(dp172
g3
g5
sg4
I-102500
sg6
g5
sg7
I00
sg8
g5
sg9
g5
sg11
g5
sg12
I44093
sg13
g5
sg14
g5
sg15
g5
sg16
g5
sg17
I3285
sg18
g5
sg19
I-44093
sg20
g5
sg21
g22
(g26
S'K<R2V\x1a\xf0\xbf'
p173
tp174
Rp175
sg32
g5
sg33
g5
sg34
g5
sg35
I102500
sg36
I3285
ssS'SHANKMAN JEFFREY A'
p176
(dp177
g3
I3221
sg4
g5
sg6
I178979
sg7
I00
sg8
g5
sg9
S'jeffrey.shankman@enron.com'
p178
sg11
I554422
sg12
g5
sg13
I1730
sg14
g5
sg15
I2681
sg16
I1191
sg17
g5
sg18
I2000000
sg19
I2072035
sg20
I94
sg21
g22
(g26
S'\x0b\x15\xf4\x9f\x96\x01\xfa\xbf'
p179
tp180
Rp181
sg32
I83
sg33
I630137
sg34
I304110
sg35
I3038702
sg36
I1441898
ssS'WODRASKA JOHN'
p182
(dp183
g3
g5
sg4
g5
sg6
g5
sg7
I00
sg8
g5
sg9
S'john.wodraska@enron.com'
p184
sg11
g5
sg12
g5
sg13
g5
sg14
g5
sg15
g5
sg16
I189583
sg17
g5
sg18
g5
sg19
g5
sg20
g5
sg21
g22
(g26
S'\xccv0\xb5\xf8\x17\xdc?'
p185
tp186
Rp187
sg32
g5
sg33
g5
sg34
g5
sg35
I189583
sg36
g5
ssS'BERGSIEKER RICHARD P'
p188
(dp189
g3
I383
sg4
g5
sg6
I59175
sg7
I00
sg8
I-485813
sg9
S'rick.bergsieker@enron.com'
p190
sg11
I180250
sg12
g5
sg13
I233
sg14
g5
sg15
I59
sg16
I427316
sg17
g5
sg18
I250000
sg19
I659249
sg20
I4
sg21
g22
(g26
S'\xa9\x99\xd0\x96\xff\xb5\xf7\xbf'
p191
tp192
Rp193
sg32
I0
sg33
I659249
sg34
I187922
sg35
I618850
sg36
g5
ssS'URQUHART JOHN A'
p194
(dp195
g3
g5
sg4
g5
sg6
I228656
sg7
I00
sg8
I-36666
sg9
g5
sg11
g5
sg12
g5
sg13
g5
sg14
g5
sg15
g5
sg16
g5
sg17
I36666
sg18
g5
sg19
g5
sg20
g5
sg21
g22
(g26
S'\r\x99\xd9[$1\xe9\xbf'
p196
tp197
Rp198
sg32
g5
sg33
g5
sg34
g5
sg35
I228656
sg36
g5
ssS'BIBI PHILIPPE A'
p199
(dp200
g3
I1607
sg4
g5
sg6
I38559
sg7
I00
sg8
g5
sg9
S'philippe.bibi@enron.com'
p201
sg11
I369721
sg12
g5
sg13
I1336
sg14
g5
sg15
I40
sg16
I425688
sg17
g5
sg18
I1000000
sg19
I1843816
sg20
I23
sg21
g22
(g26
S'[\x10\xdf\xd2\x82\x07\xf2\xbf'
p202
tp203
Rp204
sg32
I8
sg33
I378082
sg34
I213625
sg35
I2047593
sg36
I1465734
ssS'RIEKER PAULA H'
p205
(dp206
g3
I1328
sg4
I214678
sg6
I33271
sg7
I01
sg8
I-100000
sg9
S'paula.rieker@enron.com'
p207
sg11
g5
sg12
g5
sg13
I1258
sg14
g5
sg15
I82
sg16
I1950
sg17
g5
sg18
I700000
sg19
I1918887
sg20
I35
sg21
g22
(g26
S'xFj\xb8:h\xda\xbf'
p208
tp209
Rp210
sg32
I48
sg33
I283649
sg34
I249201
sg35
I1099100
sg36
I1635238
ssS'WHALEY DAVID A'
p211
(dp212
g3
g5
sg4
g5
sg6
g5
sg7
I00
sg8
g5
sg9
g5
sg11
g5
sg12
g5
sg13
g5
sg14
g5
sg15
g5
sg16
g5
sg17
g5
sg18
g5
sg19
I98718
sg20
g5
sg21
g22
(g26
S'\x1bT\x93I\x06\xd9\x08@'
p213
tp214
Rp215
sg32
g5
sg33
g5
sg34
g5
sg35
g5
sg36
I98718
ssS'BECK SALLY W'
p216
(dp217
g3
I7315
sg4
g5
sg6
I37172
sg7
I00
sg8
g5
sg9
S'sally.beck@enron.com'
p218
sg11
g5
sg12
g5
sg13
I2639
sg14
g5
sg15
I4343
sg16
I566
sg17
g5
sg18
I700000
sg19
I126027
sg20
I144
sg21
g22
(g26
S'{\xff\xbc\xc20\xa9\xfe?'
p219
tp220
Rp221
sg32
I386
sg33
I126027
sg34
I231330
sg35
I969068
sg36
g5
ssS'HAUG DAVID L'
p222
(dp223
g3
I573
sg4
g5
sg6
I475
sg7
I00
sg8
g5
sg9
S'david.haug@enron.com'
p224
sg11
g5
sg12
g5
sg13
I471
sg14
g5
sg15
I19
sg16
g5
sg17
g5
sg18
g5
sg19
I2217299
sg20
I4
sg21
g22
(g26
S'D\xf4$\x96Y\x05\xd7\xbf'
p225
tp226
Rp227
sg32
I7
sg33
I2217299
sg34
g5
sg35
I475
sg36
g5
ssS'ECHOLS JOHN B'
p228
(dp229
g3
g5
sg4
g5
sg6
I21530
sg7
I00
sg8
g5
sg9
S'john.echols@enron.com'
p230
sg11
I2234774
sg12
g5
sg13
g5
sg14
g5
sg15
g5
sg16
I53775
sg17
g5
sg18
I200000
sg19
I1008941
sg20
g5
sg21
g22
(g26
S'\x18\xe8n\xc2\xd6a\xeb?'
p231
tp232
Rp233
sg32
g5
sg33
I407503
sg34
I182245
sg35
I2692324
sg36
I601438
ssS'MENDELSOHN JOHN'
p234
(dp235
g3
g5
sg4
g5
sg6
I148
sg7
I00
sg8
I-103750
sg9
g5
sg11
g5
sg12
g5
sg13
g5
sg14
g5
sg15
g5
sg16
g5
sg17
I103750
sg18
g5
sg19
g5
sg20
g5
sg21
g22
(g26
S'L\xc0\xcbK\x04\x8e\xd8?'
p236
tp237
Rp238
sg32
g5
sg33
g5
sg34
g5
sg35
I148
sg36
g5
ssS'HICKERSON GARY J'
p239
(dp240
g3
I1320
sg4
g5
sg6
I98849
sg7
I00
sg8
g5
sg9
S'gary.hickerson@enron.com'
p241
sg11
I69223
sg12
g5
sg13
I900
sg14
g5
sg15
I27
sg16
I1936
sg17
g5
sg18
I1700000
sg19
I441096
sg20
I40
sg21
g22
(g26
S'\x91g\x1e\xf3u=\xf3\xbf'
p242
tp243
Rp244
sg32
I1
sg33
I441096
sg34
I211788
sg35
I2081796
sg36
g5
ssS'CLINE KENNETH W'
p245
(dp246
g3
g5
sg4
g5
sg6
g5
sg7
I00
sg8
g5
sg9
g5
sg11
g5
sg12
I-472568
sg13
g5
sg14
g5
sg15
g5
sg16
g5
sg17
g5
sg18
g5
sg19
I189518
sg20
g5
sg21
g22
(g26
S'\xa4p\x7f\x1e_\xc4\xcc?'
p247
tp248
Rp249
sg32
g5
sg33
I662086
sg34
g5
sg35
g5
sg36
g5
ssS'LEWIS RICHARD'
p250
(dp251
g3
I952
sg4
g5
sg6
g5
sg7
I00
sg8
g5
sg9
S'richard.lewis@enron.com'
p252
sg11
g5
sg12
g5
sg13
I739
sg14
g5
sg15
I26
sg16
g5
sg17
g5
sg18
g5
sg19
I850477
sg20
I10
sg21
g22
(g26
S'\x11n\x077Y\x1b\x00\xc0'
p253
tp254
Rp255
sg32
I0
sg33
g5
sg34
g5
sg35
g5
sg36
I850477
ssS'HAYES ROBERT E'
p256
(dp257
g3
I504
sg4
I7961
sg6
g5
sg7
I00
sg8
g5
sg9
S'robert.hayes@enron.com'
p258
sg11
g5
sg12
g5
sg13
I50
sg14
g5
sg15
I12
sg16
g5
sg17
g5
sg18
g5
sg19
I151418
sg20
I16
sg21
g22
(g26
S'.\x9d\t\xb4\x7f\x9e\xaf?'
p259
tp260
Rp261
sg32
I0
sg33
I151418
sg34
g5
sg35
I7961
sg36
g5
ssS'MCCARTY DANNY J'
p262
(dp263
g3
I1433
sg4
g5
sg6
g5
sg7
I00
sg8
g5
sg9
S'danny.mccarty@enron.com'
p264
sg11
g5
sg12
g5
sg13
I508
sg14
g5
sg15
I215
sg16
g5
sg17
g5
sg18
g5
sg19
I758931
sg20
I25
sg21
g22
(g26
S'\x08\xc9-\\\xd0"\xd0\xbf'
p265
tp266
Rp267
sg32
I2
sg33
I94556
sg34
g5
sg35
g5
sg36
I664375
ssS'KOPPER MICHAEL J'
p268
(dp269
g3
g5
sg4
g5
sg6
I118134
sg7
I01
sg8
g5
sg9
S'michael.kopper@enron.com'
p270
sg11
I602671
sg12
g5
sg13
g5
sg14
g5
sg15
g5
sg16
I907502
sg17
g5
sg18
I800000
sg19
I985032
sg20
g5
sg21
g22
(g26
S'\xf5\x98$$\xa3\xf2\xc7\xbf'
p271
tp272
Rp273
sg32
g5
sg33
I985032
sg34
I224305
sg35
I2652612
sg36
g5
ssS'LEFF DANIEL P'
p274
(dp275
g3
I2822
sg4
g5
sg6
g5
sg7
I00
sg8
g5
sg9
S'dan.leff@enron.com'
p276
sg11
I1387399
sg12
g5
sg13
I2672
sg14
g5
sg15
I63
sg16
I3083
sg17
g5
sg18
I1000000
sg19
I360528
sg20
I67
sg21
g22
(g26
S'i\x03\xf1\xb4\xf7\x8d\xf1?'
p277
tp278
Rp279
sg32
I14
sg33
I360528
sg34
I273746
sg35
I2664228
sg36
g5
ssS'LAVORATO JOHN J'
p280
(dp281
g3
I7259
sg4
g5
sg6
I49537
sg7
I00
sg8
g5
sg9
S'john.lavorato@enron.com'
p282
sg11
I2035380
sg12
g5
sg13
I3962
sg14
g5
sg15
I2585
sg16
I1552
sg17
g5
sg18
I8000000
sg19
I5167144
sg20
I528
sg21
g22
(g26
S's-\x8f\xba\xf6\xdb\xed?'
p283
tp284
Rp285
sg32
I411
sg33
I1008149
sg34
I339288
sg35
I10425757
sg36
I4158995
ssS'BERBERIAN DAVID'
p286
(dp287
g3
g5
sg4
g5
sg6
I11892
sg7
I00
sg8
g5
sg9
S'david.berberian@enron.com'
p288
sg11
g5
sg12
g5
sg13
g5
sg14
g5
sg15
g5
sg16
g5
sg17
g5
sg18
g5
sg19
I2493616
sg20
g5
sg21
g22
(g26
S'\x17\xaad\x81H\x91\xda\xbf'
p289
tp290
Rp291
sg32
g5
sg33
I869220
sg34
I216582
sg35
I228474
sg36
I1624396
ssS'DETMERING TIMOTHY J'
p292
(dp293
g3
g5
sg4
I875307
sg6
I52255
sg7
I00
sg8
I-775241
sg9
S'timothy.detmering@enron.com'
p294
sg11
I415657
sg12
I-315068
sg13
g5
sg14
g5
sg15
g5
sg16
I1105
sg17
g5
sg18
I425000
sg19
I2027865
sg20
g5
sg21
g22
(g26
S'\xf700J>\xfe\xf6\xbf'
p295
tp296
Rp297
sg32
g5
sg33
I315068
sg34
I210500
sg35
I1204583
sg36
I2027865
ssS'WAKEHAM JOHN'
p298
(dp299
g3
g5
sg4
g5
sg6
I103773
sg7
I00
sg8
g5
sg9
g5
sg11
g5
sg12
g5
sg13
g5
sg14
g5
sg15
g5
sg16
g5
sg17
I109298
sg18
g5
sg19
g5
sg20
g5
sg21
g22
(g26
S'\x90t\xdbk\xd5\x8b\xfa\xbf'
p300
tp301
Rp302
sg32
g5
sg33
g5
sg34
g5
sg35
I213071
sg36
g5
ssS'POWERS WILLIAM'
p303
(dp304
g3
I653
sg4
g5
sg6
g5
sg7
I00
sg8
I-17500
sg9
S'ken.powers@enron.com'
p305
sg11
g5
sg12
g5
sg13
I12
sg14
g5
sg15
I26
sg16
g5
sg17
I17500
sg18
g5
sg19
g5
sg20
I0
sg21
g22
(g26
S'g\x1a\x8d\x04\x84\xb6"@'
p306
tp307
Rp308
sg32
I0
sg33
g5
sg34
g5
sg35
g5
sg36
g5
ssS'GOLD JOSEPH'
p309
(dp310
g3
g5
sg4
g5
sg6
g5
sg7
I00
sg8
g5
sg9
S'joe.gold@enron.com'
p311
sg11
I304805
sg12
g5
sg13
g5
sg14
g5
sg15
g5
sg16
I819288
sg17
g5
sg18
I750000
sg19
I877611
sg20
g5
sg21
g22
(g26
S'u\xa5\xa6E\xe5U\xfb\xbf'
p312
tp313
Rp314
sg32
g5
sg33
I441096
sg34
I272880
sg35
I2146973
sg36
I436515
ssS'BANNANTINE JAMES M'
p315
(dp316
g3
I566
sg4
g5
sg6
I56301
sg7
I00
sg8
I-5104
sg9
S'james.bannantine@enron.com'
p317
sg11
g5
sg12
I-560222
sg13
I465
sg14
g5
sg15
I29
sg16
I864523
sg17
g5
sg18
g5
sg19
I5243487
sg20
I39
sg21
g22
(g26
S'\xc9\xae\xd7\xa8X\xb7\xf0\xbf'
p318
tp319
Rp320
sg32
I0
sg33
I1757552
sg34
I477
sg35
I916197
sg36
I4046157
ssS'DUNCAN JOHN H'
p321
(dp322
g3
g5
sg4
g5
sg6
g5
sg7
I00
sg8
I-25000
sg9
g5
sg11
g5
sg12
g5
sg13
g5
sg14
g5
sg15
g5
sg16
g5
sg17
I102492
sg18
g5
sg19
I371750
sg20
g5
sg21
g22
(g26
S'\xc3c&\xdc\xa2\xb1\xe1\xbf'
p323
tp324
Rp325
sg32
g5
sg33
g5
sg34
g5
sg35
I77492
sg36
I371750
ssS'SHAPIRO RICHARD S'
p326
(dp327
g3
I15149
sg4
g5
sg6
I137767
sg7
I00
sg8
g5
sg9
S'richard.shapiro@enron.com'
p328
sg11
g5
sg12
g5
sg13
I4527
sg14
g5
sg15
I1215
sg16
I705
sg17
g5
sg18
I650000
sg19
I987001
sg20
I74
sg21
g22
(g26
S'\xf2\xf3L\x11:\x03\xf8\xbf'
p329
tp330
Rp331
sg32
I65
sg33
I379164
sg34
I269076
sg35
I1057548
sg36
I607837
ssS'SHERRIFF JOHN R'
p332
(dp333
g3
I3187
sg4
g5
sg6
g5
sg7
I00
sg8
g5
sg9
S'john.sherriff@enron.com'
p334
sg11
I554422
sg12
g5
sg13
I2103
sg14
g5
sg15
I92
sg16
I1852186
sg17
g5
sg18
I1500000
sg19
I3128982
sg20
I28
sg21
g22
(g26
S'\x10Z\x9d?\x11\x16\xf3\xbf'
p335
tp336
Rp337
sg32
I23
sg33
I1293424
sg34
I428780
sg35
I4335388
sg36
I1835558
ssS'SHELBY REX'
p338
(dp339
g3
I225
sg4
g5
sg6
I22884
sg7
I01
sg8
I-4167
sg9
S'rex.shelby@enron.com'
p340
sg11
g5
sg12
g5
sg13
I91
sg14
g5
sg15
I39
sg16
I1573324
sg17
g5
sg18
I200000
sg19
I2493616
sg20
I13
sg21
g22
(g26
S'\xa5\x17\xd0\x8b\xe9\x8b\xfb\xbf'
p341
tp342
Rp343
sg32
I14
sg33
I869220
sg34
I211844
sg35
I2003885
sg36
I1624396
ssS'LEMAISTRE CHARLES'
p344
(dp345
g3
g5
sg4
g5
sg6
g5
sg7
I00
sg8
I-25000
sg9
g5
sg11
g5
sg12
g5
sg13
g5
sg14
g5
sg15
g5
sg16
g5
sg17
I112492
sg18
g5
sg19
I412878
sg20
g5
sg21
g22
(g26
S'4m\xe9\\|\xfb\xbf\xbf'
p346
tp347
Rp348
sg32
g5
sg33
g5
sg34
g5
sg35
I87492
sg36
I412878
ssS'DEFFNER JOSEPH M'
p349
(dp350
g3
I714
sg4
g5
sg6
I41626
sg7
I00
sg8
g5
sg9
S'joseph.deffner@enron.com'
p351
sg11
I335349
sg12
g5
sg13
I552
sg14
g5
sg15
I74
sg16
I25553
sg17
g5
sg18
I600000
sg19
I159211
sg20
I115
sg21
g22
(g26
S'\x89"o_\xb2L\xe2\xbf'
p352
tp353
Rp354
sg32
I4
sg33
I141833
sg34
I206121
sg35
I1208649
sg36
I17378
ssS'KISHKILL JOSEPH G'
p355
(dp356
g3
g5
sg4
g5
sg6
I116335
sg7
I00
sg8
I-51042
sg9
S'joe.kishkill@enron.com'
p357
sg11
g5
sg12
g5
sg13
g5
sg14
g5
sg15
g5
sg16
I465357
sg17
g5
sg18
g5
sg19
I1034346
sg20
g5
sg21
g22
(g26
S'\xcf\x15\xcb\xbd\x8d\xe3\x00\xc0'
p358
tp359
Rp360
sg32
g5
sg33
I1034346
sg34
I174246
sg35
I704896
sg36
g5
ssS'WHALLEY LAWRENCE G'
p361
(dp362
g3
I6019
sg4
g5
sg6
I57838
sg7
I00
sg8
g5
sg9
S'greg.whalley@enron.com'
p363
sg11
I808346
sg12
g5
sg13
I3920
sg14
g5
sg15
I556
sg16
I301026
sg17
g5
sg18
I3000000
sg19
I6079137
sg20
I186
sg21
g22
(g26
S'c\x8api\xa5\xaa\xf5\xbf'
p364
tp365
Rp366
sg32
I24
sg33
I2796177
sg34
I510364
sg35
I4677574
sg36
I3282960
ssS'MCCONNELL MICHAEL S'
p367
(dp368
g3
I3329
sg4
g5
sg6
I81364
sg7
I00
sg8
g5
sg9
S'mike.mcconnell@enron.com'
p369
sg11
I554422
sg12
g5
sg13
I2189
sg14
g5
sg15
I2742
sg16
I540
sg17
g5
sg18
I1100000
sg19
I3101279
sg20
I92
sg21
g22
(g26
S'\x84.\x03\x033\xbb\x00@'
p370
tp371
Rp372
sg32
I194
sg33
I1478269
sg34
I365038
sg35
I2101364
sg36
I1623010
ssS'PIRO JIM'
p373
(dp374
g3
I58
sg4
g5
sg6
g5
sg7
I00
sg8
g5
sg9
S'jim.piro@enron.com'
p375
sg11
g5
sg12
g5
sg13
I3
sg14
g5
sg15
I16
sg16
g5
sg17
g5
sg18
g5
sg19
I47304
sg20
I0
sg21
g22
(g26
S'\xb5\x84j\xb6`J\xfb?'
p376
tp377
Rp378
sg32
I1
sg33
I47304
sg34
g5
sg35
g5
sg36
g5
ssS'DELAINEY DAVID W'
p379
(dp380
g3
I3093
sg4
g5
sg6
I86174
sg7
I01
sg8
g5
sg9
S'david.delainey@enron.com'
p381
sg11
I1294981
sg12
g5
sg13
I2097
sg14
g5
sg15
I3069
sg16
I1661
sg17
g5
sg18
I3000000
sg19
I3614261
sg20
I66
sg21
g22
(g26
S'\xe3\xe20\xa9m*\xf2\xbf'
p382
tp383
Rp384
sg32
I609
sg33
I1323148
sg34
I365163
sg35
I4747979
sg36
I2291113
ssS'SULLIVAN-SHAKLOVITZ COLLEEN'
p385
(dp386
g3
g5
sg4
I181993
sg6
g5
sg7
I00
sg8
g5
sg9
g5
sg11
I554422
sg12
g5
sg13
g5
sg14
g5
sg15
g5
sg16
I162
sg17
g5
sg18
I100000
sg19
I1362375
sg20
g5
sg21
g22
(g26
S'\x03\xd6\x05$L\xa8\xf9\xbf'
p387
tp388
Rp389
sg32
g5
sg33
g5
sg34
I162779
sg35
I999356
sg36
I1362375
ssS'WROBEL BRUCE'
p390
(dp391
g3
g5
sg4
g5
sg6
g5
sg7
I00
sg8
g5
sg9
g5
sg11
g5
sg12
g5
sg13
g5
sg14
g5
sg15
g5
sg16
g5
sg17
g5
sg18
g5
sg19
I139130
sg20
g5
sg21
g22
(g26
S'\xa3\xf0\xe9\xe4\xfaK\xf1\xbf'
p392
tp393
Rp394
sg32
g5
sg33
g5
sg34
g5
sg35
g5
sg36
I139130
ssS'LINDHOLM TOD A'
p395
(dp396
g3
g5
sg4
I204075
sg6
I57727
sg7
I00
sg8
g5
sg9
S'tod.lindholm@enron.com'
p397
sg11
I175000
sg12
g5
sg13
g5
sg14
g5
sg15
g5
sg16
I2630
sg17
g5
sg18
I200000
sg19
I3064208
sg20
g5
sg21
g22
(g26
S'\xb8\xe3e0m\xa8\xe3\xbf'
p398
tp399
Rp400
sg32
g5
sg33
I514847
sg34
I236457
sg35
I875889
sg36
I2549361
ssS'MEYER JEROME J'
p401
(dp402
g3
g5
sg4
g5
sg6
I2151
sg7
I00
sg8
I-38346
sg9
g5
sg11
g5
sg12
g5
sg13
g5
sg14
g5
sg15
g5
sg16
g5
sg17
I38346
sg18
g5
sg19
g5
sg20
g5
sg21
g22
(g26
S'\xfa=\xd6n\x89\xb3\xb1\xbf'
p403
tp404
Rp405
sg32
g5
sg33
g5
sg34
g5
sg35
I2151
sg36
g5
ssS'LAY KENNETH L'
p406
(dp407
g3
I4273
sg4
I202911
sg6
I99832
sg7
I01
sg8
I-300000
sg9
S'kenneth.lay@enron.com'
p408
sg11
I3600000
sg12
g5
sg13
I2411
sg14
I81525000
sg15
I36
sg16
I10359729
sg17
g5
sg18
I7000000
sg19
I49110078
sg20
I123
sg21
g22
(g26
S"\xcc\xfc\xc0!'\x9f\xfc?"
p409
tp410
Rp411
sg32
I16
sg33
I14761694
sg34
I1072321
sg35
I103559793
sg36
I34348384
ssS'BUTTS ROBERT H'
p412
(dp413
g3
g5
sg4
g5
sg6
I9410
sg7
I00
sg8
I-75000
sg9
S'bob.butts@enron.com'
p414
sg11
I175000
sg12
g5
sg13
g5
sg14
g5
sg15
g5
sg16
I150656
sg17
g5
sg18
I750000
sg19
I417619
sg20
g5
sg21
g22
(g26
S'1\x80\x97t\x1c\x06\xde?'
p415
tp416
Rp417
sg32
g5
sg33
I417619
sg34
I261516
sg35
I1271582
sg36
g5
ssS'OLSON CINDY K'
p418
(dp419
g3
I1184
sg4
I77716
sg6
I63791
sg7
I00
sg8
g5
sg9
S'cindy.olson@enron.com'
p420
sg11
I100000
sg12
g5
sg13
I856
sg14
g5
sg15
I52
sg16
I972
sg17
g5
sg18
I750000
sg19
I2606763
sg20
I20
sg21
g22
(g26
S'\x82sN\xdd\x89\x80\xf4\xbf'
p421
tp422
Rp423
sg32
I15
sg33
I969729
sg34
I329078
sg35
I1321557
sg36
I1637034
ssS'MCDONALD REBECCA'
p424
(dp425
g3
I894
sg4
g5
sg6
g5
sg7
I00
sg8
g5
sg9
S'rebecca.mcdonald@enron.com'
p426
sg11
g5
sg12
g5
sg13
I720
sg14
g5
sg15
I13
sg16
g5
sg17
g5
sg18
g5
sg19
I1691366
sg20
I54
sg21
g22
(g26
S'\xba\x0fgU\xb1^\xe3\xbf'
p427
tp428
Rp429
sg32
I1
sg33
I934065
sg34
g5
sg35
g5
sg36
I757301
ssS'CUMBERLAND MICHAEL S'
p430
(dp431
g3
g5
sg4
g5
sg6
I22344
sg7
I00
sg8
g5
sg9
g5
sg11
I275000
sg12
g5
sg13
g5
sg14
g5
sg15
g5
sg16
I713
sg17
g5
sg18
I325000
sg19
I207940
sg20
g5
sg21
g22
(g26
S'\xc0\\\xab*\xd1\x84\xcd?'
p432
tp433
Rp434
sg32
g5
sg33
I207940
sg34
I184899
sg35
I807956
sg36
g5
ssS'GAHN ROBERT S'
p435
(dp436
g3
g5
sg4
I73122
sg6
I50080
sg7
I00
sg8
I-1042
sg9
g5
sg11
g5
sg12
g5
sg13
g5
sg14
g5
sg15
g5
sg16
I76547
sg17
g5
sg18
I509870
sg19
I318607
sg20
g5
sg21
g22
(g26
S'\x99?\x1d\x8f\x11m\xec\xbf'
p437
tp438
Rp439
sg32
g5
sg33
I235370
sg34
I192008
sg35
I900585
sg36
I83237
ssS'MCCLELLAN GEORGE'
p440
(dp441
g3
I1744
sg4
g5
sg6
I228763
sg7
I00
sg8
I-125000
sg9
S'george.mcclellan@enron.com'
p442
sg11
g5
sg12
g5
sg13
I1469
sg14
g5
sg15
I49
sg16
I51587
sg17
g5
sg18
I900000
sg19
I947861
sg20
I52
sg21
g22
(g26
S"\x95\xcd\x8ch\xd8'\x00\xc0"
p443
tp444
Rp445
sg32
I0
sg33
I441096
sg34
I263413
sg35
I1318763
sg36
I506765
ssS'HERMANN ROBERT J'
p446
(dp447
g3
g5
sg4
g5
sg6
I48357
sg7
I00
sg8
I-280000
sg9
S'robert.hermann@enron.com'
p448
sg11
I150000
sg12
g5
sg13
g5
sg14
g5
sg15
g5
sg16
I416441
sg17
g5
sg18
I700000
sg19
I668132
sg20
g5
sg21
g22
(g26
S',\xb6^P\x92\xee\xf0?'
p449
tp450
Rp451
sg32
g5
sg33
I480632
sg34
I262663
sg35
I1297461
sg36
I187500
ssS'SCRIMSHAW MATTHEW'
p452
(dp453
g3
g5
sg4
g5
sg6
g5
sg7
I00
sg8
g5
sg9
S'matthew.scrimshaw@enron.com'
p454
sg11
g5
sg12
g5
sg13
g5
sg14
g5
sg15
g5
sg16
g5
sg17
g5
sg18
g5
sg19
I759557
sg20
g5
sg21
g22
(g26
S'\x815Uwr\xb4\x0e@'
p455
tp456
Rp457
sg32
g5
sg33
g5
sg34
g5
sg35
g5
sg36
I759557
ssS'GATHMANN WILLIAM D'
p458
(dp459
g3
g5
sg4
g5
sg6
g5
sg7
I00
sg8
g5
sg9
g5
sg11
g5
sg12
I-72419
sg13
g5
sg14
g5
sg15
g5
sg16
g5
sg17
g5
sg18
g5
sg19
I1945360
sg20
g5
sg21
g22
(g26
S'r\xcb\xe33\xa6\x07\xe9\xbf'
p460
tp461
Rp462
sg32
g5
sg33
I264013
sg34
g5
sg35
g5
sg36
I1753766
ssS'HAEDICKE MARK E'
p463
(dp464
g3
I4009
sg4
I2157527
sg6
I76169
sg7
I00
sg8
I-934484
sg9
S'mark.haedicke@enron.com'
p465
sg11
I983346
sg12
I-329825
sg13
I1847
sg14
g5
sg15
I1941
sg16
I52382
sg17
g5
sg18
I1150000
sg19
I803094
sg20
I180
sg21
g22
(g26
S'FX\x16~\xcf\xa2\x03@'
p466
tp467
Rp468
sg32
I61
sg33
I524169
sg34
I374125
sg35
I3859065
sg36
I608750
ssS'BOWEN JR RAYMOND M'
p469
(dp470
g3
I1858
sg4
g5
sg6
I65907
sg7
I01
sg8
I-833
sg9
S'raymond.bowen@enron.com'
p471
sg11
I974293
sg12
g5
sg13
I1593
sg14
g5
sg15
I27
sg16
I1621
sg17
g5
sg18
I1350000
sg19
I252055
sg20
I140
sg21
g22
(g26
S'\xc1\xd2F\xcb\xee\x7f\xe6?'
p472
tp473
Rp474
sg32
I15
sg33
I252055
sg34
I278601
sg35
I2669589
sg36
g5
ssS'GILLIS JOHN'
p475
(dp476
g3
g5
sg4
g5
sg6
g5
sg7
I00
sg8
g5
sg9
g5
sg11
g5
sg12
g5
sg13
g5
sg14
g5
sg15
g5
sg16
g5
sg17
g5
sg18
g5
sg19
I85641
sg20
g5
sg21
g22
(g26
S'\n\x97\xcf\x13\xcb-\xba\xbf'
p477
tp478
Rp479
sg32
g5
sg33
I75838
sg34
g5
sg35
g5
sg36
I9803
ssS'FITZGERALD JAY L'
p480
(dp481
g3
I936
sg4
g5
sg6
I23870
sg7
I00
sg8
g5
sg9
S'jay.fitzgerald@enron.com'
p482
sg11
I556416
sg12
g5
sg13
I723
sg14
g5
sg15
I16
sg16
I285414
sg17
g5
sg18
I350000
sg19
I1621236
sg20
I1
sg21
g22
(g26
S'\x9c\xbd\xecOQz\x1a@'
p483
tp484
Rp485
sg32
I8
sg33
I956775
sg34
I199157
sg35
I1414857
sg36
I664461
ssS'MORAN MICHAEL P'
p486
(dp487
g3
I672
sg4
g5
sg6
g5
sg7
I00
sg8
g5
sg9
S'michael.moran@enron.com'
p488
sg11
g5
sg12
g5
sg13
I127
sg14
g5
sg15
I19
sg16
g5
sg17
g5
sg18
g5
sg19
I221141
sg20
I0
sg21
g22
(g26
S'\xdd\x89\xeb\n\x05\x1a5@'
p489
tp490
Rp491
sg32
I0
sg33
I161602
sg34
g5
sg35
g5
sg36
I59539
ssS'REDMOND BRIAN L'
p492
(dp493
g3
I1671
sg4
g5
sg6
I14689
sg7
I00
sg8
g5
sg9
S'brian.redmond@enron.com'
p494
sg11
g5
sg12
g5
sg13
I1063
sg14
g5
sg15
I221
sg16
g5
sg17
g5
sg18
g5
sg19
I7890324
sg20
I204
sg21
g22
(g26
S'\x8a\x9e\xc5\xffI\x8c\xe6?'
p495
tp496
Rp497
sg32
I49
sg33
I381285
sg34
I96840
sg35
I111529
sg36
I7509039
ssS'BAZELIDES PHILIP J'
p498
(dp499
g3
g5
sg4
I684694
sg6
g5
sg7
I00
sg8
g5
sg9
g5
sg11
I93750
sg12
g5
sg13
g5
sg14
g5
sg15
g5
sg16
I874
sg17
g5
sg18
g5
sg19
I1599641
sg20
g5
sg21
g22
(g26
S'\xccR\x10l\x84R\x00\xc0'
p500
tp501
Rp502
sg32
g5
sg33
g5
sg34
I80818
sg35
I860136
sg36
I1599641
ssS'BELDEN TIMOTHY N'
p503
(dp504
g3
I7991
sg4
I2144013
sg6
I17355
sg7
I01
sg8
I-2334434
sg9
S'tim.belden@enron.com'
p505
sg11
g5
sg12
g5
sg13
I5521
sg14
g5
sg15
I484
sg16
I210698
sg17
g5
sg18
I5249999
sg19
I1110705
sg20
I228
sg21
g22
(g26
S'(\xd2\x98\x86\xbb\xd4\xf5\xbf'
p506
tp507
Rp508
sg32
I108
sg33
I157569
sg34
I213999
sg35
I5501630
sg36
I953136
ssS'DURAN WILLIAM D'
p509
(dp510
g3
I904
sg4
g5
sg6
I25785
sg7
I00
sg8
g5
sg9
S'w.duran@enron.com'
p511
sg11
I1105218
sg12
g5
sg13
I599
sg14
g5
sg15
I12
sg16
I1568
sg17
g5
sg18
I750000
sg19
I1640910
sg20
I106
sg21
g22
(g26
S'W\x04\xf1\xb7\xa0\xcd\xe4\xbf'
p512
tp513
Rp514
sg32
I3
sg33
I189041
sg34
I210692
sg35
I2093263
sg36
I1451869
ssS'THORN TERENCE H'
p515
(dp516
g3
I266
sg4
I16586
sg6
I46145
sg7
I00
sg8
g5
sg9
S'terence.thorn@enron.com'
p517
sg11
I200000
sg12
g5
sg13
I73
sg14
g5
sg15
I41
sg16
I426629
sg17
g5
sg18
g5
sg19
I4817796
sg20
I0
sg21
g22
(g26
S'\xa4*j\xa9\xf8\xca\xfb\xbf'
p518
tp519
Rp520
sg32
I0
sg33
I365320
sg34
I222093
sg35
I911453
sg36
I4452476
ssS'FASTOW ANDREW S'
p521
(dp522
g3
g5
sg4
g5
sg6
I55921
sg7
I01
sg8
I-1386055
sg9
S'andrew.fastow@enron.com'
p523
sg11
I1736055
sg12
g5
sg13
g5
sg14
g5
sg15
g5
sg16
I277464
sg17
g5
sg18
I1300000
sg19
I1794412
sg20
g5
sg21
g22
(g26
S'\x12+\x14\xd4-\xc2\xfa\xbf'
p524
tp525
Rp526
sg32
g5
sg33
I1794412
sg34
I440698
sg35
I2424083
sg36
g5
ssS'FOY JOE'
p527
(dp528
g3
I57
sg4
I181755
sg6
g5
sg7
I00
sg8
g5
sg9
S'tracy.foy@enron.com'
p529
sg11
g5
sg12
g5
sg13
I2
sg14
g5
sg15
I13
sg16
g5
sg17
g5
sg18
g5
sg19
I343434
sg20
I0
sg21
g22
(g26
S'E;\xc8\x93\x93\x95\x02@'
p530
tp531
Rp532
sg32
I0
sg33
g5
sg34
g5
sg35
I181755
sg36
I343434
ssS'CALGER CHRISTOPHER F'
p533
(dp534
g3
I2598
sg4
g5
sg6
I35818
sg7
I01
sg8
I-262500
sg9
S'christopher.calger@enron.com'
p535
sg11
I375304
sg12
g5
sg13
I2188
sg14
g5
sg15
I144
sg16
I486
sg17
g5
sg18
I1250000
sg19
I126027
sg20
I199
sg21
g22
(g26
S'gV\xa9R(\x14\xf5\xbf'
p536
tp537
Rp538
sg32
I25
sg33
I126027
sg34
I240189
sg35
I1639297
sg36
g5
ssS'RICE KENNETH D'
p539
(dp540
g3
I905
sg4
g5
sg6
I46950
sg7
I01
sg8
I-3504386
sg9
S'ken.rice@enron.com'
p541
sg11
I1617011
sg12
g5
sg13
I864
sg14
g5
sg15
I18
sg16
I174839
sg17
g5
sg18
I1750000
sg19
I22542539
sg20
I42
sg21
g22
(g26
S'k\x8eT\xd9\xfa0\xda?'
p542
tp543
Rp544
sg32
I4
sg33
I2748364
sg34
I420636
sg35
I505050
sg36
I19794175
ssS'KAMINSKI WINCENTY J'
p545
(dp546
g3
I4607
sg4
g5
sg6
I83585
sg7
I00
sg8
g5
sg9
S'vince.kaminski@enron.com'
p547
sg11
I323466
sg12
g5
sg13
I583
sg14
g5
sg15
I14368
sg16
I4669
sg17
g5
sg18
I400000
sg19
I976037
sg20
I41
sg21
g22
(g26
S'B\xd3/8\x0e\xbe\xf9?'
p548
tp549
Rp550
sg32
I171
sg33
I126027
sg34
I275101
sg35
I1086821
sg36
I850010
ssS'LOCKHART EUGENE E'
p551
(dp552
g3
g5
sg4
g5
sg6
g5
sg7
I00
sg8
g5
sg9
g5
sg11
g5
sg12
g5
sg13
g5
sg14
g5
sg15
g5
sg16
g5
sg17
g5
sg18
g5
sg19
g5
sg20
g5
sg21
g22
(g26
S'\xbeI\x00+)P\xf1\xbf'
p553
tp554
Rp555
sg32
g5
sg33
g5
sg34
g5
sg35
g5
sg36
g5
ssS'COX DAVID'
p556
(dp557
g3
I102
sg4
g5
sg6
I27861
sg7
I00
sg8
I-41250
sg9
S'chip.cox@enron.com'
p558
sg11
g5
sg12
g5
sg13
I71
sg14
g5
sg15
I33
sg16
I494
sg17
g5
sg18
I800000
sg19
I495633
sg20
I0
sg21
g22
(g26
S'(\x94\xabm?p\xf8?'
p559
tp560
Rp561
sg32
I4
sg33
I378082
sg34
I314288
sg35
I1101393
sg36
I117551
ssS'OVERDYKE JR JERE C'
p562
(dp563
g3
g5
sg4
g5
sg6
I18834
sg7
I00
sg8
g5
sg9
S'jere.overdyke@enron.com'
p564
sg11
I135836
sg12
g5
sg13
g5
sg14
g5
sg15
g5
sg16
I176
sg17
g5
sg18
g5
sg19
I7307594
sg20
g5
sg21
g22
(g26
S'\x9a\xb7\xbd\xf37S\x00\xc0'
p565
tp566
Rp567
sg32
g5
sg33
I2041016
sg34
I94941
sg35
I249787
sg36
I5266578
ssS'PEREIRA PAULO V. FERRAZ'
p568
(dp569
g3
g5
sg4
g5
sg6
I27942
sg7
I00
sg8
I-101250
sg9
g5
sg11
g5
sg12
g5
sg13
g5
sg14
g5
sg15
g5
sg16
g5
sg17
I101250
sg18
g5
sg19
g5
sg20
g5
sg21
g22
(g26
S'\x19\xe8g\xe9\xf2\r\xd0\xbf'
p570
tp571
Rp572
sg32
g5
sg33
g5
sg34
g5
sg35
I27942
sg36
g5
ssS'STABLER FRANK'
p573
(dp574
g3
g5
sg4
g5
sg6
I16514
sg7
I00
sg8
g5
sg9
S'frank.stabler@enron.com'
p575
sg11
g5
sg12
g5
sg13
g5
sg14
g5
sg15
g5
sg16
I356071
sg17
g5
sg18
I500000
sg19
I511734
sg20
g5
sg21
g22
(g26
S'\x1a\x8c\xa6\xd0\x92~\xfd\xbf'
p576
tp577
Rp578
sg32
g5
sg33
I511734
sg34
I239502
sg35
I1112087
sg36
g5
ssS'SKILLING JEFFREY K'
p579
(dp580
g3
I3627
sg4
g5
sg6
I29336
sg7
I01
sg8
g5
sg9
S'jeff.skilling@enron.com'
p581
sg11
I1920000
sg12
g5
sg13
I2042
sg14
g5
sg15
I108
sg16
I22122
sg17
g5
sg18
I5600000
sg19
I26093672
sg20
I88
sg21
g22
(g26
S'\xb3s\x11\xceIx\xf3\xbf'
p582
tp583
Rp584
sg32
I30
sg33
I6843672
sg34
I1111258
sg35
I8682716
sg36
I19250000
ssS'BLAKE JR. NORMAN P'
p585
(dp586
g3
g5
sg4
g5
sg6
I1279
sg7
I00
sg8
I-113784
sg9
g5
sg11
g5
sg12
g5
sg13
g5
sg14
g5
sg15
g5
sg16
g5
sg17
I113784
sg18
g5
sg19
g5
sg20
g5
sg21
g22
(g26
S'\xda\xae\xc7x\xcd\xbe\xf9\xbf'
p587
tp588
Rp589
sg32
g5
sg33
g5
sg34
g5
sg35
I1279
sg36
g5
ssS'SHERRICK JEFFREY B'
p590
(dp591
g3
I613
sg4
g5
sg6
g5
sg7
I00
sg8
g5
sg9
S'jeffrey.sherrick@enron.com'
p592
sg11
g5
sg12
g5
sg13
I583
sg14
g5
sg15
I25
sg16
g5
sg17
g5
sg18
g5
sg19
I1832468
sg20
I39
sg21
g22
(g26
S'\xdd\xbbm\xdd\xc4\x1c\xf1\xbf'
p593
tp594
Rp595
sg32
I18
sg33
I405999
sg34
g5
sg35
g5
sg36
I1426469
ssS'PRENTICE JAMES'
p596
(dp597
g3
g5
sg4
I564348
sg6
g5
sg7
I00
sg8
g5
sg9
S'james.prentice@enron.com'
p598
sg11
g5
sg12
g5
sg13
g5
sg14
g5
sg15
g5
sg16
g5
sg17
g5
sg18
g5
sg19
I1095040
sg20
g5
sg21
g22
(g26
S'\x10\xcb\xf67t\xba\xd0?'
p599
tp600
Rp601
sg32
g5
sg33
I208809
sg34
g5
sg35
I564348
sg36
I886231
ssS'GRAY RODNEY'
p602
(dp603
g3
g5
sg4
I93585
sg6
g5
sg7
I00
sg8
g5
sg9
g5
sg11
I365625
sg12
g5
sg13
g5
sg14
g5
sg15
g5
sg16
I680833
sg17
g5
sg18
g5
sg19
g5
sg20
g5
sg21
g22
(g26
S'\x80\x83K\xb9#\x1d\xe4\xbf'
p604
tp605
Rp606
sg32
g5
sg33
g5
sg34
I6615
sg35
I1146658
sg36
g5
ssS'PICKERING MARK R'
p607
(dp608
g3
I898
sg4
g5
sg6
I31653
sg7
I00
sg8
g5
sg9
S'mark.pickering@enron.com'
p609
sg11
g5
sg12
g5
sg13
I728
sg14
I400000
sg15
I67
sg16
g5
sg17
g5
sg18
I300000
sg19
I28798
sg20
I7
sg21
g22
(g26
S"Ez'\x82/\x13\xf8\xbf"
p610
tp611
Rp612
sg32
I0
sg33
g5
sg34
I655037
sg35
I1386690
sg36
I28798
ssS'THE TRAVEL AGENCY IN THE PARK'
p613
(dp614
g3
g5
sg4
g5
sg6
g5
sg7
I00
sg8
g5
sg9
g5
sg11
g5
sg12
g5
sg13
g5
sg14
g5
sg15
g5
sg16
I362096
sg17
g5
sg18
g5
sg19
g5
sg20
g5
sg21
g22
(g26
S'\xbe\xad\x99y\x9b\x95w\xbf'
p615
tp616
Rp617
sg32
g5
sg33
g5
sg34
g5
sg35
I362096
sg36
g5
ssS'NOLES JAMES L'
p618
(dp619
g3
g5
sg4
I774401
sg6
g5
sg7
I00
sg8
g5
sg9
g5
sg11
g5
sg12
I-94556
sg13
g5
sg14
g5
sg15
g5
sg16
g5
sg17
g5
sg18
g5
sg19
I368705
sg20
g5
sg21
g22
(g26
S'EP\xce\xca\x8e\xb9\xe0\xbf'
p620
tp621
Rp622
sg32
g5
sg33
I463261
sg34
g5
sg35
I774401
sg36
g5
ssS'KEAN STEVEN J'
p623
(dp624
g3
I12754
sg4
g5
sg6
I41953
sg7
I00
sg8
g5
sg9
S'steven.kean@enron.com'
p625
sg11
I300000
sg12
g5
sg13
I3639
sg14
g5
sg15
I6759
sg16
I1231
sg17
g5
sg18
I1000000
sg19
I6153642
sg20
I140
sg21
g22
(g26
S'\xfeE\xa3\x08\xc8\xf9\x06@'
p626
tp627
Rp628
sg32
I387
sg33
I4131594
sg34
I404338
sg35
I1747522
sg36
I2022048
ssS'FOWLER PEGGY'
p629
(dp630
g3
I517
sg4
g5
sg6
g5
sg7
I00
sg8
g5
sg9
S'kulvinder.fowler@enron.com'
p631
sg11
g5
sg12
g5
sg13
I10
sg14
g5
sg15
I36
sg16
g5
sg17
g5
sg18
g5
sg19
I1884748
sg20
I0
sg21
g22
(g26
S'K,\xd1utJ\xff\xbf'
p632
tp633
Rp634
sg32
I0
sg33
I560170
sg34
g5
sg35
g5
sg36
I1324578
ssS'WASAFF GEORGE'
p635
(dp636
g3
I400
sg4
I831299
sg6
g5
sg7
I00
sg8
I-583325
sg9
S'george.wasaff@enron.com'
p637
sg11
I200000
sg12
g5
sg13
I337
sg14
g5
sg15
I30
sg16
I1425
sg17
g5
sg18
I325000
sg19
I2056427
sg20
I22
sg21
g22
(g26
S'A\x1a\xd2\xfc\xbf\xb5\xc8\xbf'
p638
tp639
Rp640
sg32
I7
sg33
I388167
sg34
I259996
sg35
I1034395
sg36
I1668260
ssS'WHITE JR THOMAS E'
p641
(dp642
g3
g5
sg4
g5
sg6
I81353
sg7
I00
sg8
g5
sg9
S'thomas.white@enron.com'
p643
sg11
g5
sg12
g5
sg13
g5
sg14
g5
sg15
g5
sg16
I1085463
sg17
g5
sg18
I450000
sg19
I15144123
sg20
g5
sg21
g22
(g26
S'z\x1f\x8at\x16I\xd0\xbf'
p644
tp645
Rp646
sg32
g5
sg33
I13847074
sg34
I317543
sg35
I1934359
sg36
I1297049
ssS'CHRISTODOULOU DIOMEDES'
p647
(dp648
g3
g5
sg4
g5
sg6
g5
sg7
I00
sg8
g5
sg9
S'diomedes.christodoulou@enron.com'
p649
sg11
g5
sg12
g5
sg13
g5
sg14
g5
sg15
g5
sg16
g5
sg17
g5
sg18
g5
sg19
I6077885
sg20
g5
sg21
g22
(g26
S'\x0cCS\x9dh\x83\xfb\xbf'
p650
tp651
Rp652
sg32
g5
sg33
I950730
sg34
g5
sg35
g5
sg36
I5127155
ssS'ALLEN PHILLIP K'
p653
(dp654
g3
I2902
sg4
I2869717
sg6
I13868
sg7
I00
sg8
I-3081055
sg9
S'phillip.allen@enron.com'
p655
sg11
I304805
sg12
I-126027
sg13
I1407
sg14
g5
sg15
I2195
sg16
I152
sg17
g5
sg18
I4175000
sg19
I1729541
sg20
I47
sg21
g22
(g26
S'\xc4\x1c\x91sR\x96\xfb\xbf'
p656
tp657
Rp658
sg32
I65
sg33
I126027
sg34
I201955
sg35
I4484442
sg36
I1729541
ssS'SHARP VICTORIA T'
p659
(dp660
g3
I3136
sg4
I187469
sg6
I116337
sg7
I00
sg8
g5
sg9
S'vicki.sharp@enron.com'
p661
sg11
I422158
sg12
g5
sg13
I2477
sg14
g5
sg15
I136
sg16
I2401
sg17
g5
sg18
I600000
sg19
I494136
sg20
I24
sg21
g22
(g26
S'\xffP\x11\x1d\x0c\xeb\xf7\xbf'
p662
tp663
Rp664
sg32
I6
sg33
I213063
sg34
I248146
sg35
I1576511
sg36
I281073
ssS'JAEDICKE ROBERT'
p665
(dp666
g3
g5
sg4
g5
sg6
g5
sg7
I00
sg8
I-25000
sg9
g5
sg11
g5
sg12
I-44093
sg13
g5
sg14
g5
sg15
g5
sg16
g5
sg17
I108750
sg18
g5
sg19
I431750
sg20
g5
sg21
g22
(g26
S'\xd2k\xff\x13a\x8b\xd9?'
p667
tp668
Rp669
sg32
g5
sg33
I44093
sg34
g5
sg35
I83750
sg36
I431750
ssS'WINOKUR JR. HERBERT S'
p670
(dp671
g3
g5
sg4
g5
sg6
I1413
sg7
I00
sg8
I-25000
sg9
g5
sg11
g5
sg12
g5
sg13
g5
sg14
g5
sg15
g5
sg16
g5
sg17
I108579
sg18
g5
sg19
g5
sg20
g5
sg21
g22
(g26
S'\xea\x82\xfc\x1c5\xe8\xec\xbf'
p672
tp673
Rp674
sg32
g5
sg33
g5
sg34
g5
sg35
I84992
sg36
g5
ssS'BROWN MICHAEL'
p675
(dp676
g3
I1486
sg4
g5
sg6
I49288
sg7
I00
sg8
g5
sg9
S'michael.brown@enron.com'
p677
sg11
g5
sg12
g5
sg13
I761
sg14
g5
sg15
I41
sg16
g5
sg17
g5
sg18
g5
sg19
g5
sg20
I13
sg21
g22
(g26
S'\xe75d9\xfbH\x10@'
p678
tp679
Rp680
sg32
I1
sg33
g5
sg34
g5
sg35
I49288
sg36
g5
ssS'BADUM JAMES P'
p681
(dp682
g3
g5
sg4
I178980
sg6
I3486
sg7
I00
sg8
g5
sg9
g5
sg11
g5
sg12
g5
sg13
g5
sg14
g5
sg15
g5
sg16
g5
sg17
g5
sg18
g5
sg19
I257817
sg20
g5
sg21
g22
(g26
S'4\x05ba\xa6U\xc4\xbf'
p683
tp684
Rp685
sg32
g5
sg33
g5
sg34
g5
sg35
I182466
sg36
I257817
ssS'HUGHES JAMES A'
p686
(dp687
g3
I719
sg4
g5
sg6
g5
sg7
I00
sg8
g5
sg9
S'james.hughes@enron.com'
p688
sg11
g5
sg12
g5
sg13
I589
sg14
g5
sg15
I34
sg16
g5
sg17
g5
sg18
g5
sg19
I1118394
sg20
I35
sg21
g22
(g26
S'\xa2\x0c\x1bC]\xd5\x00\xc0'
p689
tp690
Rp691
sg32
I5
sg33
I363428
sg34
g5
sg35
g5
sg36
I754966
ssS'REYNOLDS LAWRENCE'
p692
(dp693
g3
g5
sg4
I51365
sg6
I8409
sg7
I00
sg8
I-200000
sg9
g5
sg11
I156250
sg12
I-140264
sg13
g5
sg14
g5
sg15
g5
sg16
I202052
sg17
g5
sg18
I100000
sg19
I4221891
sg20
g5
sg21
g22
(g26
S'"s\xad1\xbb|\xfa\xbf'
p694
tp695
Rp696
sg32
g5
sg33
I201483
sg34
I76399
sg35
I394475
sg36
I4160672
ssS'DIMICHELE RICHARD G'
p697
(dp698
g3
g5
sg4
g5
sg6
I35812
sg7
I00
sg8
g5
sg9
S'richard.dimichele@enron.com'
p699
sg11
I694862
sg12
g5
sg13
g5
sg14
g5
sg15
g5
sg16
I374689
sg17
g5
sg18
I1000000
sg19
I8317782
sg20
g5
sg21
g22
(g26
S'\x9cT\xef!$2\xf9?'
p700
tp701
Rp702
sg32
g5
sg33
I126027
sg34
I262788
sg35
I2368151
sg36
I8191755
ssS'BHATNAGAR SANJAY'
p703
(dp704
g3
I523
sg4
g5
sg6
g5
sg7
I00
sg8
g5
sg9
S'sanjay.bhatnagar@enron.com'
p705
sg11
g5
sg12
I15456290
sg13
I463
sg14
g5
sg15
I29
sg16
I137864
sg17
I137864
sg18
g5
sS'total_stock_value'
p706
S'NaN'
p707
sg20
I0
sg21
g22
(g26
S'\xab9\x08\xbd\xa4\x8c\x01@'
p708
tp709
Rp710
sg32
I1
sg33
I-2604490
sg34
g5
sg35
I15456290
sg36
I2604490
ssS'CARTER REBECCA C'
p711
(dp712
g3
I312
sg4
g5
sg6
g5
sg7
I00
sg8
I-159792
sg9
S'rebecca.carter@enron.com'
p713
sg11
I75000
sg12
I-307301
sg13
I196
sg14
g5
sg15
I15
sg16
I540
sg17
g5
sg18
I300000
sg19
g5
sg20
I29
sg21
g22
(g26
S"\x99\xd3'.I\xab\xd7?"
p714
tp715
Rp716
sg32
I7
sg33
I307301
sg34
I261809
sg35
I477557
sg36
g5
ssS'BUCHANAN HAROLD G'
p717
(dp718
g3
I1088
sg4
g5
sg6
I600
sg7
I00
sg8
g5
sg9
S'john.buchanan@enron.com'
p719
sg11
I304805
sg12
g5
sg13
I23
sg14
g5
sg15
I125
sg16
I1215
sg17
g5
sg18
I500000
sg19
I1014505
sg20
I0
sg21
g22
(g26
S'\xedd\xcf\x1e\xc8\x9b\xd6\xbf'
p720
tp721
Rp722
sg32
I0
sg33
I189041
sg34
I248017
sg35
I1054637
sg36
I825464
ssS'YEAP SOON'
p723
(dp724
g3
g5
sg4
g5
sg6
I55097
sg7
I00
sg8
g5
sg9
g5
sg11
g5
sg12
g5
sg13
g5
sg14
g5
sg15
g5
sg16
g5
sg17
g5
sg18
g5
sg19
I192758
sg20
g5
sg21
g22
(g26
S'*R_\r\xf2\xe1\xf2\xbf'
p725
tp726
Rp727
sg32
g5
sg33
g5
sg34
g5
sg35
I55097
sg36
I192758
ssS'MURRAY JULIA H'
p728
(dp729
g3
I2192
sg4
g5
sg6
I57580
sg7
I00
sg8
g5
sg9
S'julia.murray@enron.com'
p730
sg11
I125000
sg12
g5
sg13
I395
sg14
g5
sg15
I45
sg16
I330
sg17
g5
sg18
I400000
sg19
I597461
sg20
I11
sg21
g22
(g26
S'\x8b\xd0\xa8&,\x1f\xf8?'
p731
tp732
Rp733
sg32
I2
sg33
I196983
sg34
I229284
sg35
I812194
sg36
I400478
ssS'GARLAND C KEVIN'
p734
(dp735
g3
I209
sg4
g5
sg6
I48405
sg7
I00
sg8
g5
sg9
S'kevin.garland@enron.com'
p736
sg11
I375304
sg12
g5
sg13
I178
sg14
g5
sg15
I44
sg16
I60814
sg17
g5
sg18
I850000
sg19
I896153
sg20
I10
sg21
g22
(g26
S'Dlf\xaaS$\x1c@'
p737
tp738
Rp739
sg32
I27
sg33
I259907
sg34
I231946
sg35
I1566469
sg36
I636246
ssS'DODSON KEITH'
p740
(dp741
g3
I176
sg4
g5
sg6
I28164
sg7
I00
sg8
g5
sg9
S'keith.dodson@enron.com'
p742
sg11
g5
sg12
g5
sg13
I114
sg14
g5
sg15
I14
sg16
I774
sg17
g5
sg18
I70000
sg19
g5
sg20
I10
sg21
g22
(g26
S'>4w\xc0\x16l\xee\xbf'
p743
tp744
Rp745
sg32
I3
sg33
g5
sg34
I221003
sg35
I319941
sg36
g5
ssS'YEAGER F SCOTT'
p746
(dp747
g3
g5
sg4
g5
sg6
I53947
sg7
I01
sg8
g5
sg9
S'scott.yeager@enron.com'
p748
sg11
g5
sg12
g5
sg13
g5
sg14
g5
sg15
g5
sg16
I147950
sg17
g5
sg18
g5
sg19
I11884758
sg20
g5
sg21
g22
(g26
S'\x94\x1d\xcfv\xb2\x91\xf0\xbf'
p749
tp750
Rp751
sg32
g5
sg33
I3576206
sg34
I158403
sg35
I360300
sg36
I8308552
ssS'HIRKO JOSEPH'
p752
(dp753
g3
g5
sg4
I10259
sg6
I77978
sg7
I01
sg8
g5
sg9
S'joe.hirko@enron.com'
p754
sg11
g5
sg12
g5
sg13
g5
sg14
g5
sg15
g5
sg16
I2856
sg17
g5
sg18
g5
sg19
I30766064
sg20
g5
sg21
g22
(g26
S'ie\x0b\xf17\x03\xc8?'
p755
tp756
Rp757
sg32
g5
sg33
g5
sg34
g5
sg35
I91093
sg36
I30766064
ssS'DIETRICH JANET R'
p758
(dp759
g3
I2572
sg4
g5
sg6
I3475
sg7
I00
sg8
g5
sg9
S'janet.dietrich@enron.com'
p760
sg11
I556416
sg12
g5
sg13
I1902
sg14
g5
sg15
I63
sg16
I473
sg17
g5
sg18
I600000
sg19
I1865087
sg20
I305
sg21
g22
(g26
S'Y\xacG\xfa\xe3\xaa\xe0\xbf'
p761
tp762
Rp763
sg32
I14
sg33
I315068
sg34
I250100
sg35
I1410464
sg36
I1550019
ssS'DERRICK JR. JAMES V'
p764
(dp765
g3
I2181
sg4
g5
sg6
I51124
sg7
I00
sg8
I-1284000
sg9
S'james.derrick@enron.com'
p766
sg11
I484000
sg12
I-1787380
sg13
I1401
sg14
g5
sg15
I909
sg16
I7482
sg17
g5
sg18
I800000
sg19
I8831913
sg20
I64
sg21
g22
(g26
S'h\x13\xea\xc3\x18\x0c\xfa\xbf'
p767
tp768
Rp769
sg32
I20
sg33
I1787380
sg34
I492375
sg35
I550981
sg36
I8831913
ssS'FREVERT MARK A'
p770
(dp771
g3
I3275
sg4
I6426990
sg6
I86987
sg7
I00
sg8
I-3367011
sg9
S'mark.frevert@enron.com'
p772
sg11
I1617011
sg12
g5
sg13
I2979
sg14
I2000000
sg15
I21
sg16
I7427621
sg17
g5
sg18
I2000000
sg19
I14622185
sg20
I242
sg21
g22
(g26
S'\xa3\xb1\xb6\x85/Z\xdc\xbf'
p773
tp774
Rp775
sg32
I6
sg33
I4188667
sg34
I1060932
sg35
I17252530
sg36
I10433518
ssS'PAI LOU L'
p776
(dp777
g3
g5
sg4
g5
sg6
I32047
sg7
I00
sg8
g5
sg9
S'lou.pai@enron.com'
p778
sg11
g5
sg12
g5
sg13
g5
sg14
g5
sg15
g5
sg16
I1829457
sg17
g5
sg18
I1000000
sg19
I23817930
sg20
g5
sg21
g22
(g26
S'\x0e\x81\xc1\xef\x9d\xf8\xe3\xbf'
p779
tp780
Rp781
sg32
g5
sg33
I8453763
sg34
I261879
sg35
I3123383
sg36
I15364167
ssS'BAY FRANKLIN R'
p782
(dp783
g3
g5
sg4
I260455
sg6
I129142
sg7
I00
sg8
I-201641
sg9
S'frank.bay@enron.com'
p784
sg11
g5
sg12
I-82782
sg13
g5
sg14
g5
sg15
g5
sg16
I69
sg17
g5
sg18
I400000
sg19
I63014
sg20
g5
sg21
g22
(g26
S'\x01\x10\x07N\x1b\xaf\xea\xbf'
p785
tp786
Rp787
sg32
g5
sg33
I145796
sg34
I239671
sg35
I827696
sg36
g5
ssS'HAYSLETT RODERICK J'
p788
(dp789
g3
I2649
sg4
g5
sg6
g5
sg7
I00
sg8
g5
sg9
S'rod.hayslett@enron.com'
p790
sg11
g5
sg12
g5
sg13
I571
sg14
g5
sg15
I1061
sg16
g5
sg17
g5
sg18
g5
sg19
I346663
sg20
I35
sg21
g22
(g26
S'\xa6\xd3\x1cF\x12K\xf3\xbf'
p791
tp792
Rp793
sg32
I38
sg33
I346663
sg34
g5
sg35
g5
sg36
g5
ssS'FUGH JOHN L'
p794
(dp795
g3
g5
sg4
I50591
sg6
g5
sg7
I00
sg8
g5
sg9
g5
sg11
g5
sg12
g5
sg13
g5
sg14
g5
sg15
g5
sg16
g5
sg17
g5
sg18
g5
sg19
I176378
sg20
g5
sg21
g22
(g26
S'\x9f\xd4\x95\x8b\x87\xa3\xfc\xbf'
p796
tp797
Rp798
sg32
g5
sg33
g5
sg34
g5
sg35
I50591
sg36
I176378
ssS'FALLON JAMES B'
p799
(dp800
g3
I1755
sg4
g5
sg6
I95924
sg7
I00
sg8
g5
sg9
S'jim.fallon@enron.com'
p801
sg11
I374347
sg12
g5
sg13
I1604
sg14
g5
sg15
I75
sg16
I401481
sg17
g5
sg18
I2500000
sg19
I2332399
sg20
I42
sg21
g22
(g26
S'\\\xcb\x8f\xd7\x1cr\xd8?'
p802
tp803
Rp804
sg32
I37
sg33
I1392142
sg34
I304588
sg35
I3676340
sg36
I940257
ssS'KOENIG MARK E'
p805
(dp806
g3
I2374
sg4
g5
sg6
I127017
sg7
I01
sg8
g5
sg9
S'mark.koenig@enron.com'
p807
sg11
I300000
sg12
g5
sg13
I2271
sg14
g5
sg15
I61
sg16
I150458
sg17
g5
sg18
I700000
sg19
I1920055
sg20
I53
sg21
g22
(g26
S'\xde\x9f\xc6\x8a;Y\xf8\xbf'
p808
tp809
Rp810
sg32
I15
sg33
I1248318
sg34
I309946
sg35
I1587421
sg36
I671737
ssS'SAVAGE FRANK'
p811
(dp812
g3
g5
sg4
g5
sg6
g5
sg7
I00
sg8
I-121284
sg9
g5
sg11
g5
sg12
g5
sg13
g5
sg14
g5
sg15
g5
sg16
g5
sg17
I125034
sg18
g5
sg19
g5
sg20
g5
sg21
g22
(g26
S'sz7\x0cl\xd0\xda\xbf'
p813
tp814
Rp815
sg32
g5
sg33
g5
sg34
g5
sg35
I3750
sg36
g5
ssS'IZZO LAWRENCE L'
p816
(dp817
g3
I496
sg4
g5
sg6
I28093
sg7
I00
sg8
g5
sg9
S'larry.izzo@enron.com'
p818
sg11
I312500
sg12
g5
sg13
I437
sg14
g5
sg15
I19
sg16
I1553729
sg17
g5
sg18
g5
sg19
I5819980
sg20
I28
sg21
g22
(g26
S'\x0em6\xaf#\x02\xf3\xbf'
p819
tp820
Rp821
sg32
I5
sg33
I3654808
sg34
I85274
sg35
I1979596
sg36
I2165172
ssS'TILNEY ELIZABETH A'
p822
(dp823
g3
I460
sg4
g5
sg6
g5
sg7
I00
sg8
I-575000
sg9
S'elizabeth.tilney@enron.com'
p824
sg11
I275000
sg12
g5
sg13
I379
sg14
g5
sg15
I19
sg16
I152055
sg17
g5
sg18
I300000
sg19
I1168042
sg20
I10
sg21
g22
(g26
S'\xa8\x02\x9b\xe6\x87\x9f\xfb\xbf'
p825
tp826
Rp827
sg32
I11
sg33
I576792
sg34
I247338
sg35
I399393
sg36
I591250
ssS'MARTIN AMANDA K'
p828
(dp829
g3
I1522
sg4
I85430
sg6
I8211
sg7
I00
sg8
g5
sg9
S'a..martin@enron.com'
p830
sg11
I5145434
sg12
g5
sg13
I477
sg14
g5
sg15
I230
sg16
I2818454
sg17
g5
sg18
g5
sg19
I2070306
sg20
I8
sg21
g22
(g26
S'\x94\xc5\xeeA\xe6\xa2\x0b@'
p831
tp832
Rp833
sg32
I0
sg33
g5
sg34
I349487
sg35
I8407016
sg36
I2070306
ssS'BUY RICHARD B'
p834
(dp835
g3
I3523
sg4
I649584
sg6
g5
sg7
I00
sg8
I-694862
sg9
S'rick.buy@enron.com'
p836
sg11
I769862
sg12
g5
sg13
I2333
sg14
g5
sg15
I1053
sg16
I400572
sg17
g5
sg18
I900000
sg19
I3444470
sg20
I156
sg21
g22
(g26
S'\xb5b\x95\xb8e\xca\x01@'
p837
tp838
Rp839
sg32
I71
sg33
I901657
sg34
I330546
sg35
I2355702
sg36
I2542813
ssS'GRAMM WENDY L'
p840
(dp841
g3
g5
sg4
g5
sg6
g5
sg7
I00
sg8
g5
sg9
g5
sg11
g5
sg12
g5
sg13
g5
sg14
g5
sg15
g5
sg16
g5
sg17
I119292
sg18
g5
sg19
g5
sg20
g5
sg21
g22
(g26
S'\x8b\xeb\xb8\x14&\x8c\x00\xc0'
p842
tp843
Rp844
sg32
g5
sg33
g5
sg34
g5
sg35
I119292
sg36
g5
ssS'CAUSEY RICHARD A'
p845
(dp846
g3
I1892
sg4
g5
sg6
I30674
sg7
I01
sg8
I-235000
sg9
S'richard.causey@enron.com'
p847
sg11
I350000
sg12
g5
sg13
I1585
sg14
g5
sg15
I49
sg16
I307895
sg17
g5
sg18
I1000000
sg19
I2502063
sg20
I58
sg21
g22
(g26
S'\xc4\x85\xb5.\x00\xe1\xfa\xbf'
p848
tp849
Rp850
sg32
I12
sg33
I2502063
sg34
I415189
sg35
I1868758
sg36
g5
ssS'TAYLOR MITCHELL S'
p851
(dp852
g3
I533
sg4
I227449
sg6
g5
sg7
I00
sg8
g5
sg9
S'mitchell.taylor@enron.com'
p853
sg11
g5
sg12
g5
sg13
I300
sg14
g5
sg15
I29
sg16
g5
sg17
g5
sg18
I600000
sg19
I3745048
sg20
I0
sg21
g22
(g26
S'\xde\x80\x80j\xbf\x8d\xfb\xbf'
p854
tp855
Rp856
sg32
I0
sg33
I563798
sg34
I265214
sg35
I1092663
sg36
I3181250
ssS'DONAHUE JR JEFFREY M'
p857
(dp858
g3
I865
sg4
g5
sg6
I96268
sg7
I00
sg8
I-300000
sg9
S'jeff.donahue@enron.com'
p859
sg11
g5
sg12
g5
sg13
I772
sg14
g5
sg15
I22
sg16
I891
sg17
g5
sg18
I800000
sg19
I1080988
sg20
I188
sg21
g22
(g26
S'%\xdeR\x0e\xd2<\xd2?'
p860
tp861
Rp862
sg32
I11
sg33
I315068
sg34
I278601
sg35
I875760
sg36
I765920
ssS'GLISAN JR BEN F'
p863
(dp864
g3
I873
sg4
g5
sg6
I125978
sg7
I01
sg8
g5
sg9
S'ben.glisan@enron.com'
p865
sg11
I71023
sg12
g5
sg13
I874
sg14
g5
sg15
I16
sg16
I200308
sg17
g5
sg18
I600000
sg19
I778546
sg20
I52
sg21
g22
(g26
S'\xcb\x1a\x87:\xcf\xff\xf8\xbf'
p866
tp867
Rp868
sg32
I6
sg33
I393818
sg34
I274975
sg35
I1272284
sg36
I384728
ss.